; Function Attrs: null_pointer_is_valid sspstrong uwtable
define internal void @dtap_bcc_get_status(ptr noundef %0, ptr noundef %1, ptr noundef %2, i32 noundef %3, i32 noundef %4) #1 {
  %6 = icmp slt i32 %4, 1
  br i1 %6, label %14, label %7

7:                                                ; preds = %5
  %8 = tail call zeroext i16 @elem_tlv(ptr noundef %0, ptr noundef %1, ptr noundef %2, i8 noundef zeroext 23, i32 noundef 4, i32 noundef 3, i32 noundef %3, i32 noundef %4, ptr noundef null)
  %9 = zext i16 %8 to i32
  %.not22 = icmp eq i32 %4, %9
  br i1 %.not22, label %14, label %10

10:                                               ; preds = %7
  %11 = sub nsw i32 %4, %9
  %12 = add i32 %3, %9
  %13 = tail call ptr @proto_tree_add_expert(ptr noundef %1, ptr noundef %2, ptr noundef nonnull @ei_gsm_a_dtap_extraneous_data, ptr noundef %0, i32 noundef %12, i32 noundef %11)
  br label %14

14:                                               ; preds = %7, %10, %5
  ret void
}